; Function Attrs: inlinehint nounwind uwtable
define internal fastcc noalias noundef ptr @gv_recalloc(ptr noundef captures(none) %0, i64 noundef range(i64 -2147483648, 2147483648) %1, i64 noundef range(i64 -2147483648, 2147483648) %2, i64 noundef range(i64 4, 9) %3) unnamed_addr #5 {
  %mul = tail call { i64, i1 } @llvm.umul.with.overflow.i64(i64 %3, i64 %2)
  %mul.ov = extractvalue { i64, i1 } %mul, 1
  br i1 %mul.ov, label %5, label %8

5:                                                ; preds = %4
  %6 = load ptr, ptr @stderr, align 8, !tbaa !8
  %7 = tail call i32 (ptr, ptr, ...) @fprintf(ptr noundef %6, ptr noundef nonnull @.str.4, i64 noundef %2, i64 noundef %3) #14
  tail call fastcc void @graphviz_exit() #15
  unreachable

8:                                                ; preds = %4
  %9 = mul nsw i64 %3, %1
  %10 = mul nuw nsw i64 %3, %2
  %11 = icmp eq i64 %2, 0
  br i1 %11, label %12, label %13

12:                                               ; preds = %8
  tail call void @free(ptr noundef %0) #13
  br label %gv_realloc.exit

13:                                               ; preds = %8
  %14 = tail call ptr @realloc(ptr noundef %0, i64 noundef range(i64 0, 17179869177) %10) #17
  %15 = icmp eq ptr %14, null
  br i1 %15, label %16, label %19

16:                                               ; preds = %13
  %17 = load ptr, ptr @stderr, align 8, !tbaa !8
  %18 = tail call i32 (ptr, ptr, ...) @fprintf(ptr noundef %17, ptr noundef nonnull @.str.5, i64 noundef range(i64 0, 17179869177) %10) #14
  tail call fastcc void @graphviz_exit() #15
  unreachable

19:                                               ; preds = %13
  %20 = icmp ugt i64 %10, %9
  br i1 %20, label %21, label %gv_realloc.exit

21:                                               ; preds = %19
  %22 = getelementptr inbounds nuw i8, ptr %14, i64 %9
  %23 = sub nuw nsw i64 %10, %9
  tail call void @llvm.memset.p0.i64(ptr nonnull align 1 %22, i8 0, i64 %23, i1 false)
  br label %gv_realloc.exit

gv_realloc.exit:                                  ; preds = %12, %19, %21
  %.0.i = phi ptr [ null, %12 ], [ %14, %21 ], [ %14, %19 ]
  ret ptr %.0.i
}